; ModuleID = 'source-C-CXX/3/964.cpp'
source_filename = "source-C-CXX/3/964.cpp"
target datalayout = "e-m:e-p270:32:32-p271:32:32-p272:64:64-i64:64-f80:128-n8:16:32:64-S128"
target triple = "x86_64-pc-linux-gnu"

%"class.std::ios_base::Init" = type { i8 }
%"class.std::basic_istream" = type { i32 (...)**, i64, %"class.std::basic_ios" }
%"class.std::basic_ios" = type { %"class.std::ios_base", %"class.std::basic_ostream"*, i8, i8, %"class.std::basic_streambuf"*, %"class.std::ctype"*, %"class.std::num_put"*, %"class.std::num_get"* }
%"class.std::ios_base" = type { i32 (...)**, i64, i64, i32, i32, i32, %"struct.std::ios_base::_Callback_list"*, %"struct.std::ios_base::_Words", [8 x %"struct.std::ios_base::_Words"], i32, %"struct.std::ios_base::_Words"*, %"class.std::locale" }
%"struct.std::ios_base::_Callback_list" = type { %"struct.std::ios_base::_Callback_list"*, void (i32, %"class.std::ios_base"*, i32)*, i32, i32 }
%"struct.std::ios_base::_Words" = type { i8*, i64 }
%"class.std::locale" = type { %"class.std::locale::_Impl"* }
%"class.std::locale::_Impl" = type { i32, %"class.std::locale::facet"**, i64, %"class.std::locale::facet"**, i8** }
%"class.std::locale::facet" = type <{ i32 (...)**, i32, [4 x i8] }>
%"class.std::basic_ostream" = type { i32 (...)**, %"class.std::basic_ios" }
%"class.std::basic_streambuf" = type { i32 (...)**, i8*, i8*, i8*, i8*, i8*, i8*, %"class.std::locale" }
%"class.std::ctype" = type <{ %"class.std::locale::facet.base", [4 x i8], %struct.__locale_struct*, i8, [7 x i8], i32*, i32*, i16*, i8, [256 x i8], [256 x i8], i8, [6 x i8] }>
%"class.std::locale::facet.base" = type <{ i32 (...)**, i32 }>
%struct.__locale_struct = type { [13 x %struct.__locale_data*], i16*, i32*, i32*, [13 x i8*] }
%struct.__locale_data = type opaque
%"class.std::num_put" = type { %"class.std::locale::facet.base", [4 x i8] }
%"class.std::num_get" = type { %"class.std::locale::facet.base", [4 x i8] }

@_ZStL8__ioinit = internal global %"class.std::ios_base::Init" zeroinitializer, align 1
@__dso_handle = external hidden global i8
@_ZSt3cin = external global %"class.std::basic_istream", align 8
@_ZSt4cout = external global %"class.std::basic_ostream", align 8
@llvm.global_ctors = appending global [1 x { i32, void ()*, i8* }] [{ i32, void ()*, i8* } { i32 65535, void ()* @_GLOBAL__sub_I_964.cpp, i8* null }]

declare void @_ZNSt8ios_base4InitC1Ev(%"class.std::ios_base::Init"* nonnull align 1 dereferenceable(1)) unnamed_addr #0

; Function Attrs: nounwind
declare void @_ZNSt8ios_base4InitD1Ev(%"class.std::ios_base::Init"* nonnull align 1 dereferenceable(1)) unnamed_addr #1

; Function Attrs: nofree nounwind
declare i32 @__cxa_atexit(void (i8*)*, i8*, i8*) local_unnamed_addr #2

; Function Attrs: mustprogress norecurse sspstrong uwtable
define dso_local i32 @main() local_unnamed_addr #3 {
  %1 = alloca i32, align 4
  %2 = alloca i32, align 4
  %3 = alloca [100 x [100 x i32]], align 16
  %4 = bitcast i32* %1 to i8*
  call void @llvm.lifetime.start.p0i8(i64 4, i8* nonnull %4) #7
  %5 = bitcast i32* %2 to i8*
  call void @llvm.lifetime.start.p0i8(i64 4, i8* nonnull %5) #7
  %6 = bitcast [100 x [100 x i32]]* %3 to i8*
  call void @llvm.lifetime.start.p0i8(i64 40000, i8* nonnull %6) #7
  %7 = call nonnull align 8 dereferenceable(16) %"class.std::basic_istream"* @_ZNSirsERi(%"class.std::basic_istream"* nonnull align 8 dereferenceable(16) @_ZSt3cin, i32* nonnull align 4 dereferenceable(4) %1)
  %8 = call nonnull align 8 dereferenceable(16) %"class.std::basic_istream"* @_ZNSirsERi(%"class.std::basic_istream"* nonnull align 8 dereferenceable(16) %7, i32* nonnull align 4 dereferenceable(4) %2)
  %9 = load i32, i32* %1, align 4, !tbaa !5
  %10 = icmp sgt i32 %9, 0
  %11 = load i32, i32* %2, align 4, !tbaa !5
  %12 = icmp sgt i32 %11, 0
  %13 = select i1 %10, i1 %12, i1 false
  br i1 %13, label %14, label %19

14:                                               ; preds = %0, %37
  %15 = phi i32 [ %38, %37 ], [ %9, %0 ]
  %16 = phi i32 [ %39, %37 ], [ %11, %0 ]
  %17 = phi i64 [ %40, %37 ], [ 0, %0 ]
  %18 = icmp sgt i32 %16, 0
  br i1 %18, label %27, label %37

19:                                               ; preds = %37, %0
  %20 = phi i32 [ %11, %0 ], [ %39, %37 ]
  %21 = phi i32 [ %9, %0 ], [ %38, %37 ]
  %22 = add i32 %21, -1
  %23 = add i32 %22, %20
  %24 = icmp sgt i32 %23, 0
  %25 = icmp sgt i32 %21, 0
  %26 = select i1 %24, i1 %25, i1 false
  br i1 %26, label %43, label %109

27:                                               ; preds = %14, %27
  %28 = phi i64 [ %31, %27 ], [ 0, %14 ]
  %29 = getelementptr inbounds [100 x [100 x i32]], [100 x [100 x i32]]* %3, i64 0, i64 %17, i64 %28
  %30 = call nonnull align 8 dereferenceable(16) %"class.std::basic_istream"* @_ZNSirsERi(%"class.std::basic_istream"* nonnull align 8 dereferenceable(16) @_ZSt3cin, i32* nonnull align 4 dereferenceable(4) %29)
  %31 = add nuw nsw i64 %28, 1
  %32 = load i32, i32* %2, align 4, !tbaa !5
  %33 = sext i32 %32 to i64
  %34 = icmp slt i64 %31, %33
  br i1 %34, label %27, label %35, !llvm.loop !9

35:                                               ; preds = %27
  %36 = load i32, i32* %1, align 4, !tbaa !5
  br label %37

37:                                               ; preds = %35, %14
  %38 = phi i32 [ %36, %35 ], [ %15, %14 ]
  %39 = phi i32 [ %32, %35 ], [ %16, %14 ]
  %40 = add nuw nsw i64 %17, 1
  %41 = sext i32 %38 to i64
  %42 = icmp slt i64 %40, %41
  br i1 %42, label %14, label %19, !llvm.loop !11

43:                                               ; preds = %19, %101
  %44 = phi i32 [ %102, %101 ], [ %20, %19 ]
  %45 = phi i32 [ %103, %101 ], [ %21, %19 ]
  %46 = phi i64 [ %104, %101 ], [ 0, %19 ]
  %47 = icmp sgt i32 %45, 0
  br i1 %47, label %48, label %101

48:                                               ; preds = %43, %92
  %49 = phi i32 [ %93, %92 ], [ %45, %43 ]
  %50 = phi i32 [ %94, %92 ], [ %45, %43 ]
  %51 = phi i32 [ %100, %92 ], [ %44, %43 ]
  %52 = phi i64 [ %95, %92 ], [ 0, %43 ]
  %53 = sub nsw i64 %46, %52
  %54 = sext i32 %51 to i64
  %55 = icmp slt i64 %53, %54
  br i1 %55, label %56, label %92

56:                                               ; preds = %48
  %57 = getelementptr inbounds [100 x [100 x i32]], [100 x [100 x i32]]* %3, i64 0, i64 %52, i64 %46
  %58 = sub nsw i64 0, %52
  %59 = getelementptr inbounds i32, i32* %57, i64 %58
  %60 = load i32, i32* %59, align 4, !tbaa !5
  %61 = call nonnull align 8 dereferenceable(8) %"class.std::basic_ostream"* @_ZNSolsEi(%"class.std::basic_ostream"* nonnull align 8 dereferenceable(8) @_ZSt4cout, i32 %60)
  %62 = bitcast %"class.std::basic_ostream"* %61 to i8**
  %63 = load i8*, i8** %62, align 8, !tbaa !13
  %64 = getelementptr i8, i8* %63, i64 -24
  %65 = bitcast i8* %64 to i64*
  %66 = load i64, i64* %65, align 8
  %67 = bitcast %"class.std::basic_ostream"* %61 to i8*
  %68 = add nsw i64 %66, 240
  %69 = getelementptr inbounds i8, i8* %67, i64 %68
  %70 = bitcast i8* %69 to %"class.std::ctype"**
  %71 = load %"class.std::ctype"*, %"class.std::ctype"** %70, align 8, !tbaa !15
  %72 = icmp eq %"class.std::ctype"* %71, null
  br i1 %72, label %73, label %74

73:                                               ; preds = %56
  call void @_ZSt16__throw_bad_castv() #8
  unreachable

74:                                               ; preds = %56
  %75 = getelementptr inbounds %"class.std::ctype", %"class.std::ctype"* %71, i64 0, i32 8
  %76 = load i8, i8* %75, align 8, !tbaa !19
  %77 = icmp eq i8 %76, 0
  br i1 %77, label %81, label %78

78:                                               ; preds = %74
  %79 = getelementptr inbounds %"class.std::ctype", %"class.std::ctype"* %71, i64 0, i32 9, i64 10
  %80 = load i8, i8* %79, align 1, !tbaa !21
  br label %87

81:                                               ; preds = %74
  call void @_ZNKSt5ctypeIcE13_M_widen_initEv(%"class.std::ctype"* nonnull align 8 dereferenceable(570) %71)
  %82 = bitcast %"class.std::ctype"* %71 to i8 (%"class.std::ctype"*, i8)***
  %83 = load i8 (%"class.std::ctype"*, i8)**, i8 (%"class.std::ctype"*, i8)*** %82, align 8, !tbaa !13
  %84 = getelementptr inbounds i8 (%"class.std::ctype"*, i8)*, i8 (%"class.std::ctype"*, i8)** %83, i64 6
  %85 = load i8 (%"class.std::ctype"*, i8)*, i8 (%"class.std::ctype"*, i8)** %84, align 8
  %86 = call signext i8 %85(%"class.std::ctype"* nonnull align 8 dereferenceable(570) %71, i8 signext 10)
  br label %87

87:                                               ; preds = %78, %81
  %88 = phi i8 [ %80, %78 ], [ %86, %81 ]
  %89 = call nonnull align 8 dereferenceable(8) %"class.std::basic_ostream"* @_ZNSo3putEc(%"class.std::basic_ostream"* nonnull align 8 dereferenceable(8) %61, i8 signext %88)
  %90 = call nonnull align 8 dereferenceable(8) %"class.std::basic_ostream"* @_ZNSo5flushEv(%"class.std::basic_ostream"* nonnull align 8 dereferenceable(8) %89)
  %91 = load i32, i32* %1, align 4
  br label %92

92:                                               ; preds = %48, %87
  %93 = phi i32 [ %49, %48 ], [ %91, %87 ]
  %94 = phi i32 [ %50, %48 ], [ %91, %87 ]
  %95 = add nuw nsw i64 %52, 1
  %96 = icmp ugt i64 %46, %52
  %97 = sext i32 %94 to i64
  %98 = icmp slt i64 %95, %97
  %99 = select i1 %96, i1 %98, i1 false
  %100 = load i32, i32* %2, align 4, !tbaa !5
  br i1 %99, label %48, label %101, !llvm.loop !22

101:                                              ; preds = %92, %43
  %102 = phi i32 [ %44, %43 ], [ %100, %92 ]
  %103 = phi i32 [ %45, %43 ], [ %93, %92 ]
  %104 = add nuw nsw i64 %46, 1
  %105 = add i32 %103, -1
  %106 = add i32 %105, %102
  %107 = sext i32 %106 to i64
  %108 = icmp slt i64 %104, %107
  br i1 %108, label %43, label %109, !llvm.loop !23

109:                                              ; preds = %101, %19
  call void @llvm.lifetime.end.p0i8(i64 40000, i8* nonnull %6) #7
  call void @llvm.lifetime.end.p0i8(i64 4, i8* nonnull %5) #7
  call void @llvm.lifetime.end.p0i8(i64 4, i8* nonnull %4) #7
  ret i32 0
}

; Function Attrs: argmemonly mustprogress nofree nosync nounwind willreturn
declare void @llvm.lifetime.start.p0i8(i64 immarg, i8* nocapture) #4

declare nonnull align 8 dereferenceable(16) %"class.std::basic_istream"* @_ZNSirsERi(%"class.std::basic_istream"* nonnull align 8 dereferenceable(16), i32* nonnull align 4 dereferenceable(4)) local_unnamed_addr #0

declare nonnull align 8 dereferenceable(8) %"class.std::basic_ostream"* @_ZNSolsEi(%"class.std::basic_ostream"* nonnull align 8 dereferenceable(8), i32) local_unnamed_addr #0

; Function Attrs: argmemonly mustprogress nofree nosync nounwind willreturn
declare void @llvm.lifetime.end.p0i8(i64 immarg, i8* nocapture) #4

declare nonnull align 8 dereferenceable(8) %"class.std::basic_ostream"* @_ZNSo3putEc(%"class.std::basic_ostream"* nonnull align 8 dereferenceable(8), i8 signext) local_unnamed_addr #0

declare nonnull align 8 dereferenceable(8) %"class.std::basic_ostream"* @_ZNSo5flushEv(%"class.std::basic_ostream"* nonnull align 8 dereferenceable(8)) local_unnamed_addr #0

; Function Attrs: noreturn
declare void @_ZSt16__throw_bad_castv() local_unnamed_addr #5

declare void @_ZNKSt5ctypeIcE13_M_widen_initEv(%"class.std::ctype"* nonnull align 8 dereferenceable(570)) local_unnamed_addr #0

; Function Attrs: sspstrong uwtable
define internal void @_GLOBAL__sub_I_964.cpp() #6 section ".text.startup" {
  tail call void @_ZNSt8ios_base4InitC1Ev(%"class.std::ios_base::Init"* nonnull align 1 dereferenceable(1) @_ZStL8__ioinit)
  %1 = tail call i32 @__cxa_atexit(void (i8*)* bitcast (void (%"class.std::ios_base::Init"*)* @_ZNSt8ios_base4InitD1Ev to void (i8*)*), i8* getelementptr inbounds (%"class.std::ios_base::Init", %"class.std::ios_base::Init"* @_ZStL8__ioinit, i64 0, i32 0), i8* nonnull @__dso_handle) #7
  ret void
}


!llvm.module.flags = !{!0, !1, !2, !3}
!llvm.ident = !{!4}

!0 = !{i32 1, !"wchar_size", i32 4}
!1 = !{i32 7, !"PIC Level", i32 2}
!2 = !{i32 7, !"PIE Level", i32 2}
!3 = !{i32 7, !"uwtable", i32 1}
!4 = !{!"clang version 13.0.0"}
!5 = !{!6, !6, i64 0}
!6 = !{!"int", !7, i64 0}
!7 = !{!"omnipotent char", !8, i64 0}
!8 = !{!"Simple C++ TBAA"}
!9 = distinct !{!9, !10}
!10 = !{!"llvm.loop.mustprogress"}
!11 = distinct !{!11, !10, !12}
!12 = !{!"llvm.loop.unswitch.partial.disable"}
!13 = !{!14, !14, i64 0}
!14 = !{!"vtable pointer", !8, i64 0}
!15 = !{!16, !17, i64 240}
!16 = !{!"_ZTSSt9basic_iosIcSt11char_traitsIcEE", !17, i64 216, !7, i64 224, !18, i64 225, !17, i64 232, !17, i64 240, !17, i64 248, !17, i64 256}
!17 = !{!"any pointer", !7, i64 0}
!18 = !{!"bool", !7, i64 0}
!19 = !{!20, !7, i64 56}
!20 = !{!"_ZTSSt5ctypeIcE", !17, i64 16, !18, i64 24, !17, i64 32, !17, i64 40, !17, i64 48, !7, i64 56, !7, i64 57, !7, i64 313, !7, i64 569}
!21 = !{!7, !7, i64 0}
!22 = distinct !{!22, !10}
!23 = distinct !{!23, !10, !12}
